; ModuleID = '31/569.c'
source_filename = "31/569.c"
target datalayout = "e-m:e-p270:32:32-p271:32:32-p272:64:64-i64:64-f80:128-n8:16:32:64-S128"
target triple = "x86_64-pc-linux-gnu"

%struct.student = type { [20 x i8], [20 x i8], i8, i32, [20 x i8], [20 x i8], %struct.student* }

@.str = private unnamed_addr constant [3 x i8] c"%s\00", align 1
@.str.1 = private unnamed_addr constant [15 x i8] c"%s %c %d %s %s\00", align 1
@.str.2 = private unnamed_addr constant [19 x i8] c"%s %s %c %d %s %s\0A\00", align 1

; Function Attrs: noinline nounwind uwtable
define dso_local i32 @main() #0 {
  %1 = alloca i32, align 4
  %2 = alloca %struct.student*, align 8
  %3 = alloca %struct.student*, align 8
  %4 = alloca %struct.student*, align 8
  store i32 0, i32* %1, align 4
  %5 = call noalias i8* @malloc(i64 100) #3
  %6 = bitcast i8* %5 to %struct.student*
  store %struct.student* %6, %struct.student** %3, align 8
  %7 = load %struct.student*, %struct.student** %3, align 8
  %8 = getelementptr inbounds %struct.student, %struct.student* %7, i32 0, i32 6
  store %struct.student* null, %struct.student** %8, align 8
  %9 = load %struct.student*, %struct.student** %3, align 8
  %10 = getelementptr inbounds %struct.student, %struct.student* %9, i32 0, i32 0
  %11 = getelementptr inbounds [20 x i8], [20 x i8]* %10, i64 0, i64 0
  %12 = call i32 (i8*, ...) @__isoc99_scanf(i8* getelementptr inbounds ([3 x i8], [3 x i8]* @.str, i64 0, i64 0), i8* %11)
  br label %13

13:                                               ; preds = %20, %0
  %14 = load %struct.student*, %struct.student** %3, align 8
  %15 = getelementptr inbounds %struct.student, %struct.student* %14, i32 0, i32 0
  %16 = getelementptr inbounds [20 x i8], [20 x i8]* %15, i64 0, i64 0
  %17 = load i8, i8* %16, align 8
  %18 = sext i8 %17 to i32
  %19 = icmp ne i32 %18, 101
  br i1 %19, label %20, label %45

20:                                               ; preds = %13
  %21 = load %struct.student*, %struct.student** %3, align 8
  %22 = getelementptr inbounds %struct.student, %struct.student* %21, i32 0, i32 1
  %23 = getelementptr inbounds [20 x i8], [20 x i8]* %22, i64 0, i64 0
  %24 = load %struct.student*, %struct.student** %3, align 8
  %25 = getelementptr inbounds %struct.student, %struct.student* %24, i32 0, i32 2
  %26 = load %struct.student*, %struct.student** %3, align 8
  %27 = getelementptr inbounds %struct.student, %struct.student* %26, i32 0, i32 3
  %28 = load %struct.student*, %struct.student** %3, align 8
  %29 = getelementptr inbounds %struct.student, %struct.student* %28, i32 0, i32 4
  %30 = getelementptr inbounds [20 x i8], [20 x i8]* %29, i64 0, i64 0
  %31 = load %struct.student*, %struct.student** %3, align 8
  %32 = getelementptr inbounds %struct.student, %struct.student* %31, i32 0, i32 5
  %33 = getelementptr inbounds [20 x i8], [20 x i8]* %32, i64 0, i64 0
  %34 = call i32 (i8*, ...) @__isoc99_scanf(i8* getelementptr inbounds ([15 x i8], [15 x i8]* @.str.1, i64 0, i64 0), i8* %23, i8* %25, i32* %27, i8* %30, i8* %33)
  %35 = load %struct.student*, %struct.student** %3, align 8
  store %struct.student* %35, %struct.student** %4, align 8
  %36 = call noalias i8* @malloc(i64 100) #3
  %37 = bitcast i8* %36 to %struct.student*
  store %struct.student* %37, %struct.student** %3, align 8
  %38 = load %struct.student*, %struct.student** %4, align 8
  %39 = load %struct.student*, %struct.student** %3, align 8
  %40 = getelementptr inbounds %struct.student, %struct.student* %39, i32 0, i32 6
  store %struct.student* %38, %struct.student** %40, align 8
  %41 = load %struct.student*, %struct.student** %3, align 8
  %42 = getelementptr inbounds %struct.student, %struct.student* %41, i32 0, i32 0
  %43 = getelementptr inbounds [20 x i8], [20 x i8]* %42, i64 0, i64 0
  %44 = call i32 (i8*, ...) @__isoc99_scanf(i8* getelementptr inbounds ([3 x i8], [3 x i8]* @.str, i64 0, i64 0), i8* %43)
  br label %13

45:                                               ; preds = %13
  %46 = load %struct.student*, %struct.student** %4, align 8
  store %struct.student* %46, %struct.student** %2, align 8
  br label %47

47:                                               ; preds = %50, %45
  %48 = load %struct.student*, %struct.student** %2, align 8
  %49 = icmp ne %struct.student* %48, null
  br i1 %49, label %50, label %74

50:                                               ; preds = %47
  %51 = load %struct.student*, %struct.student** %2, align 8
  %52 = getelementptr inbounds %struct.student, %struct.student* %51, i32 0, i32 0
  %53 = getelementptr inbounds [20 x i8], [20 x i8]* %52, i64 0, i64 0
  %54 = load %struct.student*, %struct.student** %2, align 8
  %55 = getelementptr inbounds %struct.student, %struct.student* %54, i32 0, i32 1
  %56 = getelementptr inbounds [20 x i8], [20 x i8]* %55, i64 0, i64 0
  %57 = load %struct.student*, %struct.student** %2, align 8
  %58 = getelementptr inbounds %struct.student, %struct.student* %57, i32 0, i32 2
  %59 = load i8, i8* %58, align 8
  %60 = sext i8 %59 to i32
  %61 = load %struct.student*, %struct.student** %2, align 8
  %62 = getelementptr inbounds %struct.student, %struct.student* %61, i32 0, i32 3
  %63 = load i32, i32* %62, align 4
  %64 = load %struct.student*, %struct.student** %2, align 8
  %65 = getelementptr inbounds %struct.student, %struct.student* %64, i32 0, i32 4
  %66 = getelementptr inbounds [20 x i8], [20 x i8]* %65, i64 0, i64 0
  %67 = load %struct.student*, %struct.student** %2, align 8
  %68 = getelementptr inbounds %struct.student, %struct.student* %67, i32 0, i32 5
  %69 = getelementptr inbounds [20 x i8], [20 x i8]* %68, i64 0, i64 0
  %70 = call i32 (i8*, ...) @printf(i8* getelementptr inbounds ([19 x i8], [19 x i8]* @.str.2, i64 0, i64 0), i8* %53, i8* %56, i32 %60, i32 %63, i8* %66, i8* %69)
  %71 = load %struct.student*, %struct.student** %2, align 8
  %72 = getelementptr inbounds %struct.student, %struct.student* %71, i32 0, i32 6
  %73 = load %struct.student*, %struct.student** %72, align 8
  store %struct.student* %73, %struct.student** %2, align 8
  br label %47

74:                                               ; preds = %47
  ret i32 0
}

; Function Attrs: nounwind
declare dso_local noalias i8* @malloc(i64) #1

declare dso_local i32 @__isoc99_scanf(i8*, ...) #2

declare dso_local i32 @printf(i8*, ...) #2


!llvm.module.flags = !{!0}
!llvm.ident = !{!1}

!0 = !{i32 1, !"wchar_size", i32 4}
!1 = !{!"clang version 10.0.0-4ubuntu1 "}
